; Function Attrs: nounwind uwtable
define dso_local i64 @cash_div_cash(ptr noundef readonly captures(none) %0) local_unnamed_addr #0 {
  %2 = getelementptr inbounds nuw i8, ptr %0, i64 48
  %3 = load i64, ptr %2, align 8
  %4 = icmp eq i64 %3, 0
  br i1 %4, label %5, label %9

5:                                                ; preds = %1
  %6 = tail call zeroext i1 @errstart_cold(i32 noundef 21, ptr noundef null) #16
  tail call void @llvm.assume(i1 %6)
  %7 = tail call i32 @errcode(i32 noundef 33816706) #13
  %8 = tail call i32 (ptr, ...) @errmsg(ptr noundef nonnull @.str.13) #13
  tail call void @errfinish(ptr noundef nonnull @.str.7, i32 noundef 725, ptr noundef nonnull @__func__.cash_div_cash) #13
  unreachable

9:                                                ; preds = %1
  %10 = getelementptr inbounds nuw i8, ptr %0, i64 32
  %11 = load i64, ptr %10, align 8
  %12 = sitofp i64 %11 to double
  %13 = sitofp i64 %3 to double
  %14 = fdiv double %12, %13
  %15 = bitcast double %14 to i64
  ret i64 %15
}